target datalayout = "e-m:e-p270:32:32-p271:32:32-p272:64:64-i64:64-i128:128-f80:128-n8:16:32:64-S128"
target triple = "x86_64-pc-linux-gnu"

%struct.crypto_ex_data_st = type { ptr }
%struct.ssl_st = type { i32, i16, i16, ptr, ptr, ptr, ptr, ptr, i32, i32, ptr, ptr, i32, i32, ptr, ptr, ptr, ptr, ptr, ptr, ptr, ptr, i32, i32, [32 x i8], ptr, ptr, ptr, ptr, ptr, ptr, ptr, i64, %struct.crypto_ex_data_st, ptr, i32, i32, i32, i32, i16, ptr, i32, i64, ptr, ptr, ptr, ptr, ptr, ptr, i32, i32, ptr, ptr, i8, i8, i32 }
%struct.ssl_protocol_method_st = type { i8, ptr, ptr, ptr, ptr, ptr, ptr, ptr, ptr, ptr, ptr, ptr, i32, ptr, ptr }

@.str = private unnamed_addr constant [117 x i8] c"generated/home/dtcxzyw/WorkSpace/Projects/compilers/llvm-opt-benchmark/bench/libquic/libquic/boringssl/ssl/ssl_lib.c\00", align 1

; Function Attrs: nounwind uwtable
define hidden i32 @SSL_in_init(ptr noundef %0) #0 {
  %2 = alloca ptr, align 8
  store ptr %0, ptr %2, align 8, !tbaa !80
  %3 = load ptr, ptr %2, align 8, !tbaa !80
  %4 = getelementptr inbounds nuw %struct.ssl_st, ptr %3, i32 0, i32 9
  %5 = load i32, ptr %4, align 4, !tbaa !139
  %6 = and i32 %5, 12288
  %7 = icmp ne i32 %6, 0
  %8 = zext i1 %7 to i32
  ret i32 %8
}

; Function Attrs: nounwind uwtable
define hidden i32 @SSL_do_handshake(ptr noundef %0) #0 {
  %2 = alloca i32, align 4
  %3 = alloca ptr, align 8
  store ptr %0, ptr %3, align 8, !tbaa !80
  %4 = load ptr, ptr %3, align 8, !tbaa !80
  %5 = getelementptr inbounds nuw %struct.ssl_st, ptr %4, i32 0, i32 22
  store i32 1, ptr %5, align 8, !tbaa !120
  call void @ERR_clear_error()
  %6 = load ptr, ptr %3, align 8, !tbaa !80
  %7 = getelementptr inbounds nuw %struct.ssl_st, ptr %6, i32 0, i32 7
  %8 = load ptr, ptr %7, align 8, !tbaa !141
  %9 = icmp eq ptr %8, null
  br i1 %9, label %10, label %11

10:                                               ; preds = %1
  call void @ERR_put_error(i32 noundef 16, i32 noundef 0, i32 noundef 134, ptr noundef @.str, i32 noundef 556)
  store i32 -1, ptr %2, align 4
  br label %22

11:                                               ; preds = %1
  %12 = load ptr, ptr %3, align 8, !tbaa !80
  %13 = call i32 @SSL_in_init(ptr noundef %12)
  %14 = icmp ne i32 %13, 0
  br i1 %14, label %16, label %15

15:                                               ; preds = %11
  store i32 1, ptr %2, align 4
  br label %22

16:                                               ; preds = %11
  %17 = load ptr, ptr %3, align 8, !tbaa !80
  %18 = getelementptr inbounds nuw %struct.ssl_st, ptr %17, i32 0, i32 7
  %19 = load ptr, ptr %18, align 8, !tbaa !141
  %20 = load ptr, ptr %3, align 8, !tbaa !80
  %21 = call i32 %19(ptr noundef %20)
  store i32 %21, ptr %2, align 4
  br label %22

22:                                               ; preds = %16, %15, %10
  %23 = load i32, ptr %2, align 4
  ret i32 %23
}

; Function Attrs: nounwind uwtable
define hidden void @SSL_set_connect_state(ptr noundef %0) #0 {
  %2 = alloca ptr, align 8
  store ptr %0, ptr %2, align 8, !tbaa !80
  %3 = load ptr, ptr %2, align 8, !tbaa !80
  %4 = getelementptr inbounds nuw %struct.ssl_st, ptr %3, i32 0, i32 54
  %5 = load i8, ptr %4, align 1
  %6 = and i8 %5, -3
  %7 = or i8 %6, 0
  store i8 %7, ptr %4, align 1
  %8 = load ptr, ptr %2, align 8, !tbaa !80
  %9 = getelementptr inbounds nuw %struct.ssl_st, ptr %8, i32 0, i32 8
  store i32 0, ptr %9, align 8, !tbaa !138
  %10 = load ptr, ptr %2, align 8, !tbaa !80
  %11 = getelementptr inbounds nuw %struct.ssl_st, ptr %10, i32 0, i32 9
  store i32 4096, ptr %11, align 4, !tbaa !139
  %12 = load ptr, ptr %2, align 8, !tbaa !80
  %13 = getelementptr inbounds nuw %struct.ssl_st, ptr %12, i32 0, i32 3
  %14 = load ptr, ptr %13, align 8, !tbaa !117
  %15 = getelementptr inbounds nuw %struct.ssl_protocol_method_st, ptr %14, i32 0, i32 4
  %16 = load ptr, ptr %15, align 8, !tbaa !140
  %17 = load ptr, ptr %2, align 8, !tbaa !80
  %18 = getelementptr inbounds nuw %struct.ssl_st, ptr %17, i32 0, i32 7
  store ptr %16, ptr %18, align 8, !tbaa !141
  ret void
}

; Function Attrs: nounwind uwtable
define hidden i32 @SSL_connect(ptr noundef %0) #0 {
  %2 = alloca ptr, align 8
  store ptr %0, ptr %2, align 8, !tbaa !80
  %3 = load ptr, ptr %2, align 8, !tbaa !80
  %4 = getelementptr inbounds nuw %struct.ssl_st, ptr %3, i32 0, i32 7
  %5 = load ptr, ptr %4, align 8, !tbaa !141
  %6 = icmp eq ptr %5, null
  br i1 %6, label %7, label %9

7:                                                ; preds = %1
  %8 = load ptr, ptr %2, align 8, !tbaa !80
  call void @SSL_set_connect_state(ptr noundef %8)
  br label %9

9:                                                ; preds = %7, %1
  %10 = load ptr, ptr %2, align 8, !tbaa !80
  %11 = call i32 @SSL_do_handshake(ptr noundef %10)
  ret i32 %11
}