; Function Attrs: nounwind uwtable
define hidden i32 @SSL_connect(ptr noundef initializes((144, 148)) %0) local_unnamed_addr #0 {
  %2 = getelementptr inbounds nuw i8, ptr %0, i64 40
  %3 = load ptr, ptr %2, align 8, !tbaa !130
  %4 = icmp eq ptr %3, null
  br i1 %4, label %5, label %15

5:                                                ; preds = %1
  %6 = getelementptr inbounds nuw i8, ptr %0, i64 385
  %7 = load i8, ptr %6, align 1
  %8 = and i8 %7, -3
  store i8 %8, ptr %6, align 1
  %9 = getelementptr inbounds nuw i8, ptr %0, i64 48
  store i32 0, ptr %9, align 8, !tbaa !127
  %10 = getelementptr inbounds nuw i8, ptr %0, i64 52
  store i32 4096, ptr %10, align 4, !tbaa !128
  %11 = getelementptr inbounds nuw i8, ptr %0, i64 8
  %12 = load ptr, ptr %11, align 8, !tbaa !106
  %13 = getelementptr inbounds nuw i8, ptr %12, i64 32
  %14 = load ptr, ptr %13, align 8, !tbaa !129
  store ptr %14, ptr %2, align 8, !tbaa !130
  br label %15

15:                                               ; preds = %5, %1
  %16 = getelementptr inbounds nuw i8, ptr %0, i64 144
  store i32 1, ptr %16, align 8, !tbaa !109
  tail call void @ERR_clear_error() #21
  %17 = load ptr, ptr %2, align 8, !tbaa !130
  %18 = icmp eq ptr %17, null
  br i1 %18, label %19, label %20

19:                                               ; preds = %15
  tail call void @ERR_put_error(i32 noundef 16, i32 noundef 0, i32 noundef 134, ptr noundef nonnull @.str, i32 noundef 556) #21
  br label %SSL_do_handshake.exit

20:                                               ; preds = %15
  %21 = getelementptr inbounds nuw i8, ptr %0, i64 52
  %22 = load i32, ptr %21, align 4, !tbaa !128
  %23 = and i32 %22, 12288
  %.not5.i = icmp eq i32 %23, 0
  br i1 %.not5.i, label %SSL_do_handshake.exit, label %24

24:                                               ; preds = %20
  %25 = tail call i32 %17(ptr noundef nonnull %0) #21
  br label %SSL_do_handshake.exit

SSL_do_handshake.exit:                            ; preds = %19, %20, %24
  %.0.i = phi i32 [ -1, %19 ], [ %25, %24 ], [ 1, %20 ]
  ret i32 %.0.i
}